target datalayout = "e-m:e-p270:32:32-p271:32:32-p272:64:64-i64:64-i128:128-f80:128-n8:16:32:64-S128"
target triple = "x86_64-pc-linux-gnu"

%class.RarVM = type { ptr, [8 x i32] }

; Function Attrs: mustprogress nounwind uwtable
define void @_ZN5RarVM9SetMemoryEmPhm(ptr noundef nonnull align 8 dereferenceable(40) %0, i64 noundef %1, ptr noundef %2, i64 noundef %3) #0 align 2 {
  %5 = alloca ptr, align 8
  %6 = alloca i64, align 8
  %7 = alloca ptr, align 8
  %8 = alloca i64, align 8
  %9 = alloca i64, align 8
  store ptr %0, ptr %5, align 8
  store i64 %1, ptr %6, align 8
  store ptr %2, ptr %7, align 8
  store i64 %3, ptr %8, align 8
  %10 = load ptr, ptr %5, align 8
  %11 = load i64, ptr %6, align 8
  %12 = icmp ult i64 %11, 262144
  br i1 %12, label %13, label %42

13:                                               ; preds = %4
  %14 = load ptr, ptr %7, align 8
  %15 = getelementptr inbounds %class.RarVM, ptr %10, i32 0, i32 0
  %16 = load ptr, ptr %15, align 8
  %17 = load i64, ptr %6, align 8
  %18 = getelementptr inbounds i8, ptr %16, i64 %17
  %19 = icmp ne ptr %14, %18
  br i1 %19, label %20, label %42

20:                                               ; preds = %13
  %21 = load i64, ptr %8, align 8
  %22 = load i64, ptr %6, align 8
  %23 = sub i64 262144, %22
  %24 = icmp ult i64 %21, %23
  br i1 %24, label %25, label %27

25:                                               ; preds = %20
  %26 = load i64, ptr %8, align 8
  br label %30

27:                                               ; preds = %20
  %28 = load i64, ptr %6, align 8
  %29 = sub i64 262144, %28
  br label %30

30:                                               ; preds = %27, %25
  %31 = phi i64 [ %26, %25 ], [ %29, %27 ]
  store i64 %31, ptr %9, align 8
  %32 = load i64, ptr %9, align 8
  %33 = icmp ne i64 %32, 0
  br i1 %33, label %34, label %41

34:                                               ; preds = %30
  %35 = getelementptr inbounds %class.RarVM, ptr %10, i32 0, i32 0
  %36 = load ptr, ptr %35, align 8
  %37 = load i64, ptr %6, align 8
  %38 = getelementptr inbounds i8, ptr %36, i64 %37
  %39 = load ptr, ptr %7, align 8
  %40 = load i64, ptr %9, align 8
  call void @llvm.memmove.p0.p0.i64(ptr align 1 %38, ptr align 1 %39, i64 %40, i1 false)
  br label %41

41:                                               ; preds = %34, %30
  br label %42

42:                                               ; preds = %41, %13, %4
  ret void
}