; Function Attrs: mustprogress nofree norecurse nosync nounwind willreturn memory(readwrite, inaccessiblemem: none) uwtable
define void @_ZN5RarVM9SetMemoryEmPhm(ptr nocapture noundef nonnull readonly align 8 dereferenceable(40) %0, i64 noundef %1, ptr noundef readonly %2, i64 noundef %3) local_unnamed_addr #8 align 2 {
  %5 = icmp ult i64 %1, 262144
  br i1 %5, label %6, label %12

6:                                                ; preds = %4
  %7 = load ptr, ptr %0, align 8
  %8 = getelementptr inbounds i8, ptr %7, i64 %1
  %.not = icmp eq ptr %8, %2
  %.not14 = icmp eq i64 %3, 0
  %or.cond = or i1 %.not14, %.not
  br i1 %or.cond, label %12, label %9

9:                                                ; preds = %6
  %10 = sub nuw nsw i64 262144, %1
  %11 = tail call i64 @llvm.umin.i64(i64 %10, i64 %3)
  tail call void @llvm.memmove.p0.p0.i64(ptr align 1 %8, ptr align 1 %2, i64 %11, i1 false)
  br label %12

12:                                               ; preds = %9, %6, %4
  ret void
}